target datalayout = "e-m:e-p270:32:32-p271:32:32-p272:64:64-i64:64-i128:128-f80:128-n8:16:32:64-S128"
target triple = "x86_64-pc-linux-gnu"

%class.symbol = type { ptr }
%class.params_ref = type { ptr }
%class.arith_util = type { ptr, ptr }
%class.bv_util = type { %class.bv_recognizers, ptr, ptr }
%class.bv_recognizers = type { i32 }
%class.fpa_util = type { ptr, ptr, i32, %class.arith_util, %class.bv_util }
%class.seq_util = type { ptr, ptr, ptr, i32, [4 x i8], %"class.seq_util::str", %"class.seq_util::rex" }
%"class.seq_util::str" = type <{ ptr, ptr, i32, [4 x i8] }>
%"class.seq_util::rex" = type { ptr, ptr, i32, %class.vector, %class.ref_vector, %"struct.seq_util::rex::info", %"struct.seq_util::rex::info" }
%class.vector = type { ptr }
%"struct.seq_util::rex::info" = type { i32, i8, i32, i32 }
%"class.datalog::dl_decl_util" = type <{ ptr, %class.scoped_ptr, %class.scoped_ptr.7, i32, [4 x i8] }>
%class.scoped_ptr = type { ptr }
%class.scoped_ptr.7 = type { ptr }
%class.ref_vector.16 = type { %class.ref_vector_core.17 }
%class.ref_vector_core.17 = type { %class.ref_manager_wrapper.18, %class.ptr_vector.19 }
%class.ref_manager_wrapper.18 = type { ptr }
%class.ptr_vector.19 = type { %class.vector.20 }
%class.vector.20 = type { ptr }
%union.pthread_mutex_t = type { %struct.__pthread_mutex_s }
%struct.__pthread_mutex_s = type { i32, i32, i32, i32, i32, i16, i16, %struct.__pthread_internal_list }
%struct.__pthread_internal_list = type { ptr, ptr }
%class.ref_vector = type { %class.ref_vector_core }
%class.ref_vector_core = type { %class.ref_manager_wrapper, %class.ptr_vector }
%class.ref_manager_wrapper = type { ptr }
%class.ptr_vector = type { %class.vector.6 }
%class.vector.6 = type { ptr }
%class.svector = type { %class.vector.9 }
%class.vector.9 = type { ptr }
%"class.std::__cxx11::basic_string" = type { %"struct.std::__cxx11::basic_string<char>::_Alloc_hider", i64, %union.anon.53 }
%"struct.std::__cxx11::basic_string<char>::_Alloc_hider" = type { ptr }
%union.anon.53 = type { i64, [8 x i8] }
%struct.Z3_solver_ref = type { %"class.api::object", %class.scoped_ptr.54, %class.ref, %class.params_ref, %class.param_descrs, %class.symbol, %class.scoped_ptr.55, %class.scoped_ptr.56, %"class.std::mutex", ptr }
%"class.api::object" = type { ptr, %"struct.std::atomic", i32, ptr }
%"struct.std::atomic" = type { %"struct.std::__atomic_base" }
%"struct.std::__atomic_base" = type { i32 }
%class.scoped_ptr.54 = type { ptr }
%class.ref = type { ptr }
%class.param_descrs = type { ptr }
%class.scoped_ptr.55 = type { ptr }
%class.scoped_ptr.56 = type { ptr }
%"class.std::mutex" = type { %"class.std::__mutex_base" }
%"class.std::__mutex_base" = type { %union.pthread_mutex_t }
%"class.api::context" = type { %class.tactic_manager, %class.ast_context_params, i8, i8, %class.scoped_ptr.76, %class.scoped_ptr.56, [8 x i8], %"class.std::mutex", %class.arith_util, %class.bv_util, %"class.datalog::dl_decl_util", %class.fpa_util, %class.seq_util, %"class.recfun::util", %struct.smt_params, %class.ptr_vector.19, %class.ptr_vector.19, %class.ptr_vector.77, %class.ptr_vector.77, %class.ref_vector.16, %class.ref.79, %class.u_map.80, %class.svector, i32, i32, i32, i32, i32, i32, i32, i32, i32, ptr, %"class.std::__cxx11::basic_string", i32, ptr, %"class.std::__cxx11::basic_string", i32, %class.ptr_vector.85, %class.sbuffer, ptr, %class.reslimit, %"class.api::pmanager", %class.mpq_manager, %class.scoped_ptr.87 }
%class.tactic_manager = type { %class.map.58, %class.map.62, %class.map.66, %class.ptr_vector.70, %class.ptr_vector.72, %class.ptr_vector.74 }
%class.map.58 = type { %class.table2map.59 }
%class.table2map.59 = type { %class.core_hashtable.60 }
%class.core_hashtable.60 = type <{ ptr, i32, i32, i32, [4 x i8] }>
%class.map.62 = type { %class.table2map.63 }
%class.table2map.63 = type { %class.core_hashtable.64 }
%class.core_hashtable.64 = type <{ ptr, i32, i32, i32, [4 x i8] }>
%class.map.66 = type { %class.table2map.67 }
%class.table2map.67 = type { %class.core_hashtable.68 }
%class.core_hashtable.68 = type <{ ptr, i32, i32, i32, [4 x i8] }>
%class.ptr_vector.70 = type { %class.vector.71 }
%class.vector.71 = type { ptr }
%class.ptr_vector.72 = type { %class.vector.73 }
%class.vector.73 = type { ptr }
%class.ptr_vector.74 = type { %class.vector.75 }
%class.vector.75 = type { ptr }
%class.ast_context_params = type { %class.context_params, ptr }
%class.context_params = type { i32, i32, %"class.std::__cxx11::basic_string", %"class.std::__cxx11::basic_string", i8, i8, i8, i8, i8, i8, i8, i8, i8, i8, i8, %"class.std::__cxx11::basic_string" }
%class.scoped_ptr.76 = type { ptr }
%"class.recfun::util" = type { ptr, i32, ptr }
%struct.smt_params = type { %struct.preprocessor_params.base, %struct.dyn_ack_params, %struct.qi_params, %struct.theory_arith_params.base, i8, %struct.theory_array_params.base, %struct.theory_bv_params, [4 x i8], %struct.theory_str_params.base, %struct.theory_seq_params, %struct.theory_pb_params.base, %struct.theory_datatype_params, i8, i8, i8, i8, i8, i8, i32, i8, i32, double, double, i32, i32, i32, i32, i32, i8, i32, i32, i32, i32, i32, i32, i8, i32, i8, i8, i8, i8, i8, %class.symbol, i8, i8, i32, i32, i8, i8, i8, i8, i32, i8, i32, i32, double, i8, double, double, i32, i8, i32, i32, double, i32, i32, i32, i32, i32, double, i8, i8, i8, i8, %class.symbol, i8, i8, i8, i8, i8, i8, i32, i8, i8, i8, i8, i8, i8, i8, i8, i8, double, i8, %class.symbol }
%struct.preprocessor_params.base = type <{ %struct.pattern_inference_params.base, %struct.bit_blaster_params, i32, i32, i8, i8, i8, i8, i8, i8, i8, i8, i8, i8, i8, i8, i8, i8, i8, i8, i8, i8, i8 }>
%struct.pattern_inference_params.base = type <{ i8, [3 x i8], i32, i8, i8, [2 x i8], i32, i8, [3 x i8], i32, i32, i8, [3 x i8], i32, i8, i8 }>
%struct.bit_blaster_params = type { i8, i8 }
%struct.dyn_ack_params = type { i32, i8, double, i32, i32, double }
%struct.qi_params = type { %"class.std::__cxx11::basic_string", %"class.std::__cxx11::basic_string", double, double, i32, i32, i8, i32, i32, i8, i8, i32, i8, i8, i8, i8, i32, i32, i32, i8, i32, ptr }
%struct.theory_arith_params.base = type <{ i8, i8, [2 x i8], i32, i8, [3 x i8], i32, i8, [3 x i8], i32, i8, i8, [2 x i8], i32, i32, i8, i8, [2 x i8], i32, i32, i8, [3 x i8], i32, i32, i8, [3 x i8], double, double, i8, [3 x i8], i32, i8, i8, i8, i8, i8, [3 x i8], i32, i8, i8, [2 x i8], i32, i8, [3 x i8], i32, i8, i8, i8, i8, i8, i8, [2 x i8], i32, i8, i8, [2 x i8], i32, i8, [3 x i8], i32, i8, i8, i8 }>
%struct.theory_array_params.base = type <{ i8, i8, [2 x i8], i32, i8, i8, [2 x i8], i32, i8, i8, i8, i8, i32, i8 }>
%struct.theory_bv_params = type { i32, i8, i8, i8, i8, i32, i8, i8, i8, i8, i32 }
%struct.theory_str_params.base = type <{ i8, i8, i8, i8, i8, i8, i8, i8, double, i32, i32, i32, i32, i32, i8, i8 }>
%struct.theory_seq_params = type { i8, i8, i32, i32 }
%struct.theory_pb_params.base = type <{ i32, i8 }>
%struct.theory_datatype_params = type { i32 }
%class.ptr_vector.77 = type { %class.vector.78 }
%class.vector.78 = type { ptr }
%class.ref.79 = type { ptr }
%class.u_map.80 = type { %class.map.81 }
%class.map.81 = type { %class.table2map.82 }
%class.table2map.82 = type { %class.core_hashtable.83 }
%class.core_hashtable.83 = type <{ ptr, i32, i32, i32, [4 x i8] }>
%class.ptr_vector.85 = type { %class.vector.86 }
%class.vector.86 = type { ptr }
%class.sbuffer = type { %class.buffer }
%class.buffer = type { ptr, i32, i32, [16 x i8] }
%class.reslimit = type { %"struct.std::atomic", i8, i64, i64, %class.svector.21, %class.ptr_vector.23 }
%class.svector.21 = type { %class.vector.22 }
%class.vector.22 = type { ptr }
%class.ptr_vector.23 = type { %class.vector.24 }
%class.vector.24 = type { ptr }
%"class.api::pmanager" = type { %class.mpz_manager, %"class.polynomial::manager" }
%class.mpz_manager = type { %class.small_object_allocator, %"class.std::recursive_mutex", [4 x i8], i32, %class.mpz, %class.mpz }
%class.small_object_allocator = type { [32 x ptr], [32 x ptr], i64 }
%"class.std::recursive_mutex" = type { %"class.std::__recursive_mutex_base" }
%"class.std::__recursive_mutex_base" = type { %union.pthread_mutex_t }
%class.mpz = type { i32, i8, ptr }
%"class.polynomial::manager" = type { ptr }
%class.mpq_manager = type { %class.mpz_manager, %class.mpz, %class.mpz, %class.mpz, %class.mpz, %class.mpq, %class.mpq }
%class.mpq = type { %class.mpz, %class.mpz }
%class.scoped_ptr.87 = type { ptr }
%"class.std::_Function_base" = type { %"union.std::_Any_data", ptr }
%"union.std::_Any_data" = type { %"union.std::_Nocopy_types" }
%"union.std::_Nocopy_types" = type { { i64, i64 } }
%"class.std::function.176" = type { %"class.std::_Function_base", ptr }

@_ZTI12z3_exception = external constant ptr

; Function Attrs: mustprogress nounwind uwtable
define linkonce_odr hidden noundef ptr @_ZNSt9_Any_data9_M_accessEv(ptr noundef nonnull align 8 dereferenceable(16) %0) #7 comdat align 2 {
  %2 = alloca ptr, align 8
  store ptr %0, ptr %2, align 8, !tbaa !994
  %3 = load ptr, ptr %2, align 8
  %4 = getelementptr inbounds [16 x i8], ptr %3, i64 0, i64 0
  ret ptr %4
}

; Function Attrs: mustprogress nounwind uwtable
define linkonce_odr hidden void @_ZNSt14_Function_base13_Base_managerIPFvPvPN15user_propagator8callbackEP4exprS6_EE9_M_createIS8_EEvRSt9_Any_dataOT_St17integral_constantIbLb1EE(ptr noundef nonnull align 8 dereferenceable(16) %0, ptr noundef nonnull align 8 dereferenceable(8) %1) #7 comdat align 2 {
  %3 = alloca ptr, align 8
  %4 = alloca ptr, align 8
  store ptr %0, ptr %3, align 8, !tbaa !994
  store ptr %1, ptr %4, align 8, !tbaa !481
  %5 = load ptr, ptr %3, align 8, !tbaa !994
  %6 = call noundef ptr @_ZNSt9_Any_data9_M_accessEv(ptr noundef nonnull align 8 dereferenceable(16) %5) #3
  %7 = load ptr, ptr %4, align 8, !tbaa !481
  %8 = load ptr, ptr %7, align 8, !tbaa !467
  store ptr %8, ptr %6, align 8, !tbaa !467
  ret void
}

; Function Attrs: mustprogress nounwind uwtable
define linkonce_odr hidden noundef ptr @_ZNK3refI6solverE3getEv(ptr noundef nonnull align 8 dereferenceable(8) %0) #7 comdat align 2 {
  %2 = alloca ptr, align 8
  store ptr %0, ptr %2, align 8, !tbaa !85
  %3 = load ptr, ptr %2, align 8
  %4 = getelementptr inbounds nuw %class.ref, ptr %3, i32 0, i32 0
  %5 = load ptr, ptr %4, align 8, !tbaa !87
  ret ptr %5
}

; Function Attrs: inlinehint mustprogress nounwind uwtable
define linkonce_odr hidden noundef ptr @_Z9to_solverP10_Z3_solver(ptr noundef %0) #8 comdat {
  %2 = alloca ptr, align 8
  store ptr %0, ptr %2, align 8, !tbaa !90
  %3 = load ptr, ptr %2, align 8, !tbaa !90
  ret ptr %3
}

; Function Attrs: mustprogress nounwind uwtable
define linkonce_odr hidden void @_ZNSt14_Function_base13_Base_managerIPFvPvPN15user_propagator8callbackEP4exprS6_EE15_M_init_functorIS8_EEvRSt9_Any_dataOT_(ptr noundef nonnull align 8 dereferenceable(16) %0, ptr noundef nonnull align 8 dereferenceable(8) %1) #7 comdat align 2 personality ptr @__gxx_personality_v0 {
  %3 = alloca ptr, align 8
  %4 = alloca ptr, align 8
  store ptr %0, ptr %3, align 8, !tbaa !994
  store ptr %1, ptr %4, align 8, !tbaa !481
  %5 = load ptr, ptr %3, align 8, !tbaa !994
  %6 = load ptr, ptr %4, align 8, !tbaa !481
  invoke void @_ZNSt14_Function_base13_Base_managerIPFvPvPN15user_propagator8callbackEP4exprS6_EE9_M_createIS8_EEvRSt9_Any_dataOT_St17integral_constantIbLb1EE(ptr noundef nonnull align 8 dereferenceable(16) %5, ptr noundef nonnull align 8 dereferenceable(8) %6)
          to label %7 unwind label %8

7:                                                ; preds = %2
  ret void

8:                                                ; preds = %2
  %9 = landingpad { ptr, i32 }
          catch ptr null
  %10 = extractvalue { ptr, i32 } %9, 0
  call void @__clang_call_terminate(ptr %10) #24
  unreachable
}

; Function Attrs: mustprogress nounwind uwtable
define linkonce_odr hidden noundef zeroext i1 @_ZNSt14_Function_base13_Base_managerIPFvPvPN15user_propagator8callbackEP4exprS6_EE21_M_not_empty_functionIS7_EEbPT_(ptr noundef %0) #7 comdat align 2 {
  %2 = alloca ptr, align 8
  store ptr %0, ptr %2, align 8, !tbaa !467
  %3 = load ptr, ptr %2, align 8, !tbaa !467
  %4 = icmp ne ptr %3, null
  ret i1 %4
}

; Function Attrs: mustprogress nounwind uwtable
define linkonce_odr hidden void @_ZNSt14_Function_baseC2Ev(ptr noundef nonnull align 8 dereferenceable(24) %0) unnamed_addr #7 comdat align 2 {
  %2 = alloca ptr, align 8
  store ptr %0, ptr %2, align 8, !tbaa !506
  %3 = load ptr, ptr %2, align 8
  %4 = getelementptr inbounds nuw %"class.std::_Function_base", ptr %3, i32 0, i32 0
  store ptr null, ptr %4, align 8, !tbaa !369
  %5 = getelementptr inbounds nuw %"class.std::_Function_base", ptr %3, i32 0, i32 1
  store ptr null, ptr %5, align 8, !tbaa !476
  ret void
}

; Function Attrs: mustprogress nounwind uwtable
define linkonce_odr hidden void @_ZNSt14_Function_baseD2Ev(ptr noundef nonnull align 8 dereferenceable(24) %0) unnamed_addr #7 comdat align 2 personality ptr @__gxx_personality_v0 {
  %2 = alloca ptr, align 8
  store ptr %0, ptr %2, align 8, !tbaa !506
  %3 = load ptr, ptr %2, align 8
  %4 = getelementptr inbounds nuw %"class.std::_Function_base", ptr %3, i32 0, i32 1
  %5 = load ptr, ptr %4, align 8, !tbaa !476
  %6 = icmp ne ptr %5, null
  br i1 %6, label %7, label %14

7:                                                ; preds = %1
  %8 = getelementptr inbounds nuw %"class.std::_Function_base", ptr %3, i32 0, i32 1
  %9 = load ptr, ptr %8, align 8, !tbaa !476
  %10 = getelementptr inbounds nuw %"class.std::_Function_base", ptr %3, i32 0, i32 0
  %11 = getelementptr inbounds nuw %"class.std::_Function_base", ptr %3, i32 0, i32 0
  %12 = invoke noundef zeroext i1 %9(ptr noundef nonnull align 8 dereferenceable(16) %10, ptr noundef nonnull align 8 dereferenceable(16) %11, i32 noundef 3)
          to label %13 unwind label %15

13:                                               ; preds = %7
  br label %14

14:                                               ; preds = %13, %1
  ret void

15:                                               ; preds = %7
  %16 = landingpad { ptr, i32 }
          catch ptr null
  %17 = extractvalue { ptr, i32 } %16, 0
  call void @__clang_call_terminate(ptr %17) #24
  unreachable
}

; Function Attrs: inlinehint mustprogress uwtable
define linkonce_odr hidden noundef ptr @_Z13to_solver_refP10_Z3_solver(ptr noundef %0) #5 comdat {
  %2 = alloca ptr, align 8
  store ptr %0, ptr %2, align 8, !tbaa !90
  %3 = load ptr, ptr %2, align 8, !tbaa !90
  %4 = call noundef ptr @_Z9to_solverP10_Z3_solver(ptr noundef %3)
  %5 = getelementptr inbounds nuw %struct.Z3_solver_ref, ptr %4, i32 0, i32 2
  %6 = call noundef ptr @_ZNK3refI6solverE3getEv(ptr noundef nonnull align 8 dereferenceable(8) %5)
  ret ptr %6
}

; Function Attrs: mustprogress nounwind uwtable
define linkonce_odr hidden void @_ZNSt8functionIFvPvPN15user_propagator8callbackEP4exprS5_EEC2IPS6_vEEOT_(ptr noundef nonnull align 8 dereferenceable(32) %0, ptr noundef nonnull align 8 dereferenceable(8) %1) unnamed_addr #7 comdat align 2 {
  %3 = alloca ptr, align 8
  %4 = alloca ptr, align 8
  store ptr %0, ptr %3, align 8, !tbaa !492
  store ptr %1, ptr %4, align 8, !tbaa !481
  %5 = load ptr, ptr %3, align 8
  %6 = getelementptr inbounds i8, ptr %5, i64 0
  call void @llvm.memset.p0.i64(ptr align 8 %6, i8 0, i64 24, i1 false)
  call void @_ZNSt14_Function_baseC2Ev(ptr noundef nonnull align 8 dereferenceable(24) %5) #3
  %7 = getelementptr inbounds nuw %"class.std::function.176", ptr %5, i32 0, i32 1
  store ptr null, ptr %7, align 8, !tbaa !494
  %8 = load ptr, ptr %4, align 8, !tbaa !481
  %9 = load ptr, ptr %8, align 8, !tbaa !467
  %10 = call noundef zeroext i1 @_ZNSt14_Function_base13_Base_managerIPFvPvPN15user_propagator8callbackEP4exprS6_EE21_M_not_empty_functionIS7_EEbPT_(ptr noundef %9) #3
  br i1 %10, label %11, label %16

11:                                               ; preds = %2
  %12 = getelementptr inbounds nuw %"class.std::_Function_base", ptr %5, i32 0, i32 0
  %13 = load ptr, ptr %4, align 8, !tbaa !481
  call void @_ZNSt14_Function_base13_Base_managerIPFvPvPN15user_propagator8callbackEP4exprS6_EE15_M_init_functorIS8_EEvRSt9_Any_dataOT_(ptr noundef nonnull align 8 dereferenceable(16) %12, ptr noundef nonnull align 8 dereferenceable(8) %13) #3
  %14 = getelementptr inbounds nuw %"class.std::function.176", ptr %5, i32 0, i32 1
  store ptr @_ZNSt17_Function_handlerIFvPvPN15user_propagator8callbackEP4exprS5_EPS6_E9_M_invokeERKSt9_Any_dataOS0_OS3_OS5_SE_, ptr %14, align 8, !tbaa !494
  %15 = getelementptr inbounds nuw %"class.std::_Function_base", ptr %5, i32 0, i32 1
  store ptr @_ZNSt17_Function_handlerIFvPvPN15user_propagator8callbackEP4exprS5_EPS6_E10_M_managerERSt9_Any_dataRKS9_St18_Manager_operation, ptr %15, align 8, !tbaa !476
  br label %16

16:                                               ; preds = %11, %2
  ret void
}

; Function Attrs: mustprogress nounwind uwtable
define linkonce_odr hidden void @_ZN3api7context16reset_error_codeEv(ptr noundef nonnull align 8 dereferenceable(3056) %0) #7 comdat align 2 {
  %2 = alloca ptr, align 8
  store ptr %0, ptr %2, align 8, !tbaa !101
  %3 = load ptr, ptr %2, align 8
  %4 = getelementptr inbounds nuw %"class.api::context", ptr %3, i32 0, i32 34
  store i32 0, ptr %4, align 8, !tbaa !102
  ret void
}

; Function Attrs: inlinehint mustprogress nounwind uwtable
define linkonce_odr hidden noundef ptr @_Z4mk_cP11_Z3_context(ptr noundef %0) #8 comdat {
  %2 = alloca ptr, align 8
  store ptr %0, ptr %2, align 8, !tbaa !88
  %3 = load ptr, ptr %2, align 8, !tbaa !88
  ret ptr %3
}

; Function Attrs: mustprogress uwtable
define void @Z3_solver_propagate_fixed(ptr noundef %0, ptr noundef %1, ptr noundef %2) #4 personality ptr @__gxx_personality_v0 {
  %4 = alloca ptr, align 8
  %5 = alloca ptr, align 8
  %6 = alloca ptr, align 8
  %7 = alloca ptr, align 8
  %8 = alloca i32, align 4
  %9 = alloca %"class.std::function.176", align 8
  %10 = alloca ptr, align 8
  %11 = alloca ptr, align 8
  store ptr %0, ptr %4, align 8, !tbaa !88
  store ptr %1, ptr %5, align 8, !tbaa !90
  store ptr %2, ptr %6, align 8, !tbaa !467
  %12 = load ptr, ptr %4, align 8, !tbaa !88
  %13 = invoke noundef ptr @_Z4mk_cP11_Z3_context(ptr noundef %12)
          to label %14 unwind label %25

14:                                               ; preds = %3
  invoke void @_ZN3api7context16reset_error_codeEv(ptr noundef nonnull align 8 dereferenceable(3056) %13)
          to label %15 unwind label %25

15:                                               ; preds = %14
  call void @llvm.lifetime.start.p0(i64 32, ptr %9) #3
  call void @llvm.lifetime.start.p0(i64 8, ptr %10) #3
  %16 = load ptr, ptr %6, align 8, !tbaa !467
  store ptr %16, ptr %10, align 8, !tbaa !467
  call void @_ZNSt8functionIFvPvPN15user_propagator8callbackEP4exprS5_EEC2IPS6_vEEOT_(ptr noundef nonnull align 8 dereferenceable(32) %9, ptr noundef nonnull align 8 dereferenceable(8) %10) #3
  call void @llvm.lifetime.end.p0(i64 8, ptr %10) #3
  %17 = load ptr, ptr %5, align 8, !tbaa !90
  %18 = invoke noundef ptr @_Z13to_solver_refP10_Z3_solver(ptr noundef %17)
          to label %19 unwind label %29

19:                                               ; preds = %15
  %20 = getelementptr inbounds i8, ptr %18, i64 72
  %21 = load ptr, ptr %20, align 8, !tbaa !18
  %22 = getelementptr inbounds ptr, ptr %21, i64 3
  %23 = load ptr, ptr %22, align 8
  invoke void %23(ptr noundef nonnull align 8 dereferenceable(8) %20, ptr noundef nonnull align 8 dereferenceable(32) %9)
          to label %24 unwind label %29

24:                                               ; preds = %19
  call void @_ZNSt14_Function_baseD2Ev(ptr noundef nonnull align 8 dereferenceable(32) %9) #3
  call void @llvm.lifetime.end.p0(i64 32, ptr %9) #3
  br label %50

25:                                               ; preds = %14, %3
  %26 = landingpad { ptr, i32 }
          catch ptr @_ZTI12z3_exception
  %27 = extractvalue { ptr, i32 } %26, 0
  store ptr %27, ptr %7, align 8
  %28 = extractvalue { ptr, i32 } %26, 1
  store i32 %28, ptr %8, align 4
  br label %33

29:                                               ; preds = %19, %15
  %30 = landingpad { ptr, i32 }
          cleanup
          catch ptr @_ZTI12z3_exception
  %31 = extractvalue { ptr, i32 } %30, 0
  store ptr %31, ptr %7, align 8
  %32 = extractvalue { ptr, i32 } %30, 1
  store i32 %32, ptr %8, align 4
  call void @_ZNSt14_Function_baseD2Ev(ptr noundef nonnull align 8 dereferenceable(32) %9) #3
  call void @llvm.lifetime.end.p0(i64 32, ptr %9) #3
  br label %33

33:                                               ; preds = %29, %25
  %34 = load i32, ptr %8, align 4
  %35 = call i32 @llvm.eh.typeid.for.p0(ptr @_ZTI12z3_exception) #3
  %36 = icmp eq i32 %34, %35
  br i1 %36, label %37, label %51

37:                                               ; preds = %33
  call void @llvm.lifetime.start.p0(i64 8, ptr %11) #3
  %38 = load ptr, ptr %7, align 8
  %39 = call ptr @__cxa_begin_catch(ptr %38) #3
  store ptr %39, ptr %11, align 8
  %40 = load ptr, ptr %4, align 8, !tbaa !88
  %41 = invoke noundef ptr @_Z4mk_cP11_Z3_context(ptr noundef %40)
          to label %42 unwind label %45

42:                                               ; preds = %37
  %43 = load ptr, ptr %11, align 8, !tbaa !92
  invoke void @_ZN3api7context16handle_exceptionER12z3_exception(ptr noundef nonnull align 8 dereferenceable(3056) %41, ptr noundef nonnull align 8 dereferenceable(8) %43)
          to label %44 unwind label %45

44:                                               ; preds = %42
  call void @__cxa_end_catch()
  call void @llvm.lifetime.end.p0(i64 8, ptr %11) #3
  br label %50

45:                                               ; preds = %42, %37
  %46 = landingpad { ptr, i32 }
          cleanup
  %47 = extractvalue { ptr, i32 } %46, 0
  store ptr %47, ptr %7, align 8
  %48 = extractvalue { ptr, i32 } %46, 1
  store i32 %48, ptr %8, align 4
  invoke void @__cxa_end_catch()
          to label %49 unwind label %56

49:                                               ; preds = %45
  call void @llvm.lifetime.end.p0(i64 8, ptr %11) #3
  br label %51

50:                                               ; preds = %44, %24
  ret void

51:                                               ; preds = %49, %33
  %52 = load ptr, ptr %7, align 8
  %53 = load i32, ptr %8, align 4
  %54 = insertvalue { ptr, i32 } poison, ptr %52, 0
  %55 = insertvalue { ptr, i32 } %54, i32 %53, 1
  resume { ptr, i32 } %55

56:                                               ; preds = %45
  %57 = landingpad { ptr, i32 }
          catch ptr null
  %58 = extractvalue { ptr, i32 } %57, 0
  call void @__clang_call_terminate(ptr %58) #24
  unreachable
}